; ModuleID = 'source-C-CXX/44/491.c'
source_filename = "source-C-CXX/44/491.c"
target datalayout = "e-m:e-p270:32:32-p271:32:32-p272:64:64-i64:64-f80:128-n8:16:32:64-S128"
target triple = "x86_64-pc-linux-gnu"

@.str = private unnamed_addr constant [5 x i8] c"%s%s\00", align 1
@.str.1 = private unnamed_addr constant [3 x i8] c"%d\00", align 1

; Function Attrs: nofree nounwind sspstrong uwtable
define dso_local void @main() local_unnamed_addr #0 {
  %1 = alloca [100 x i8], align 16
  %2 = alloca [100 x i8], align 16
  %3 = getelementptr inbounds [100 x i8], [100 x i8]* %1, i64 0, i64 0
  call void @llvm.lifetime.start.p0i8(i64 100, i8* nonnull %3) #4
  %4 = getelementptr inbounds [100 x i8], [100 x i8]* %2, i64 0, i64 0
  call void @llvm.lifetime.start.p0i8(i64 100, i8* nonnull %4) #4
  %5 = call i32 (i8*, ...) @__isoc99_scanf(i8* getelementptr inbounds ([5 x i8], [5 x i8]* @.str, i64 0, i64 0), i8* nonnull %3, i8* nonnull %4)
  %6 = call i64 @strlen(i8* noundef nonnull %4) #5
  %7 = getelementptr inbounds [100 x i8], [100 x i8]* %2, i64 0, i64 %6
  %8 = load i8, i8* %3, align 16
  %9 = icmp sgt i64 %6, 0
  br i1 %9, label %10, label %35

10:                                               ; preds = %0, %31
  %11 = phi i32 [ %33, %31 ], [ 0, %0 ]
  %12 = phi i8* [ %32, %31 ], [ %4, %0 ]
  %13 = load i8, i8* %12, align 1, !tbaa !5
  %14 = icmp eq i8 %13, %8
  br i1 %14, label %15, label %31

15:                                               ; preds = %10
  %16 = call i64 @strlen(i8* noundef nonnull %3) #5
  %17 = icmp ugt i64 %16, 1
  br i1 %17, label %18, label %29

18:                                               ; preds = %15, %25
  %19 = phi i64 [ %26, %25 ], [ 1, %15 ]
  %20 = phi i8* [ %27, %25 ], [ %12, %15 ]
  %21 = getelementptr inbounds [100 x i8], [100 x i8]* %1, i64 0, i64 %19
  %22 = load i8, i8* %21, align 1, !tbaa !5
  %23 = icmp eq i8 %22, 0
  %24 = zext i1 %23 to i8
  store i8 %24, i8* %20, align 1, !tbaa !5
  br i1 %23, label %35, label %25

25:                                               ; preds = %18
  %26 = add nuw i64 %19, 1
  %27 = getelementptr inbounds i8, i8* %20, i64 1
  %28 = icmp eq i64 %26, %16
  br i1 %28, label %29, label %18, !llvm.loop !8

29:                                               ; preds = %25, %15
  %30 = call i32 (i8*, ...) @printf(i8* nonnull dereferenceable(1) getelementptr inbounds ([3 x i8], [3 x i8]* @.str.1, i64 0, i64 0), i32 %11)
  br label %35

31:                                               ; preds = %10
  %32 = getelementptr inbounds i8, i8* %12, i64 1
  %33 = add nuw nsw i32 %11, 1
  %34 = icmp ult i8* %32, %7
  br i1 %34, label %10, label %35, !llvm.loop !10

35:                                               ; preds = %31, %18, %0, %29
  call void @llvm.lifetime.end.p0i8(i64 100, i8* nonnull %4) #4
  call void @llvm.lifetime.end.p0i8(i64 100, i8* nonnull %3) #4
  ret void
}

; Function Attrs: argmemonly mustprogress nofree nosync nounwind willreturn
declare void @llvm.lifetime.start.p0i8(i64 immarg, i8* nocapture) #1

; Function Attrs: nofree nounwind
declare noundef i32 @__isoc99_scanf(i8* nocapture noundef readonly, ...) local_unnamed_addr #2

; Function Attrs: argmemonly mustprogress nofree nounwind readonly willreturn
declare i64 @strlen(i8* nocapture) local_unnamed_addr #3

; Function Attrs: nofree nounwind
declare noundef i32 @printf(i8* nocapture noundef readonly, ...) local_unnamed_addr #2

; Function Attrs: argmemonly mustprogress nofree nosync nounwind willreturn
declare void @llvm.lifetime.end.p0i8(i64 immarg, i8* nocapture) #1


!llvm.module.flags = !{!0, !1, !2, !3}
!llvm.ident = !{!4}

!0 = !{i32 1, !"wchar_size", i32 4}
!1 = !{i32 7, !"PIC Level", i32 2}
!2 = !{i32 7, !"PIE Level", i32 2}
!3 = !{i32 7, !"uwtable", i32 1}
!4 = !{!"clang version 13.0.0"}
!5 = !{!6, !6, i64 0}
!6 = !{!"omnipotent char", !7, i64 0}
!7 = !{!"Simple C/C++ TBAA"}
!8 = distinct !{!8, !9}
!9 = !{!"llvm.loop.mustprogress"}
!10 = distinct !{!10, !9}
